; Function Attrs: nounwind uwtable
define hidden void @X11SD_DirectRenderNotify(ptr nocapture noundef readnone %0, ptr nocapture noundef %1) local_unnamed_addr #0 {
  %3 = getelementptr inbounds i8, ptr %1, i64 192
  %4 = load i8, ptr %3, align 8
  %.not = icmp eq i8 %4, 0
  br i1 %.not, label %7, label %5

5:                                                ; preds = %2
  %6 = getelementptr inbounds i8, ptr %1, i64 180
  store i8 1, ptr %6, align 4
  br label %7

7:                                                ; preds = %5, %2
  tail call void (...) @awt_output_flush() #18
  ret void
}